; Function Attrs: mustprogress uwtable
define void @_Z11done_symtabP8t_symtab(ptr noundef captures(none) %0) local_unnamed_addr #0 personality ptr @__gxx_personality_v0 {
  %2 = alloca %"class.std::__cxx11::basic_string", align 8
  %3 = alloca %"class.std::allocator.2", align 1
  %4 = alloca %"class.std::filesystem::__cxx11::path", align 8
  %5 = getelementptr inbounds nuw i8, ptr %0, i64 8
  %6 = load ptr, ptr %5, align 8, !tbaa !98
  %.not29 = icmp eq ptr %6, null
  br i1 %.not29, label %._crit_edge, label %.preheader

.preheader:                                       ; preds = %1, %.critedge
  %.02130 = phi ptr [ %26, %.critedge ], [ %6, %1 ]
  %7 = load i32, ptr %.02130, align 8, !tbaa !101
  %8 = icmp sgt i32 %7, 0
  br i1 %8, label %.lr.ph, label %.critedge

.lr.ph:                                           ; preds = %.preheader
  %9 = getelementptr inbounds nuw i8, ptr %.02130, i64 8
  br label %10

10:                                               ; preds = %.lr.ph, %14
  %indvars.iv = phi i64 [ 0, %.lr.ph ], [ %indvars.iv.next, %14 ]
  %11 = load i32, ptr %0, align 8, !tbaa !108
  %12 = sext i32 %11 to i64
  %13 = icmp slt i64 %indvars.iv, %12
  br i1 %13, label %14, label %.critedge.loopexit

14:                                               ; preds = %10
  %15 = load ptr, ptr %9, align 8, !tbaa !106
  %16 = getelementptr inbounds nuw ptr, ptr %15, i64 %indvars.iv
  %17 = load ptr, ptr %16, align 8, !tbaa !51
  tail call void @_Z9save_freePKcS0_iPv(ptr noundef nonnull @.str.22, ptr noundef nonnull @.str.1, i32 noundef 378, ptr noundef %17)
  %indvars.iv.next = add nuw nsw i64 %indvars.iv, 1
  %18 = load i32, ptr %.02130, align 8, !tbaa !101
  %19 = sext i32 %18 to i64
  %20 = icmp slt i64 %indvars.iv.next, %19
  br i1 %20, label %10, label %.critedge.loopexit, !llvm.loop !117

.critedge.loopexit:                               ; preds = %14, %10
  %.022.lcssa.ph.in = phi i64 [ %indvars.iv, %10 ], [ %indvars.iv.next, %14 ]
  %.022.lcssa.ph = trunc i64 %.022.lcssa.ph.in to i32
  br label %.critedge

.critedge:                                        ; preds = %.critedge.loopexit, %.preheader
  %.022.lcssa = phi i32 [ 0, %.preheader ], [ %.022.lcssa.ph, %.critedge.loopexit ]
  %21 = load i32, ptr %0, align 8, !tbaa !108
  %22 = sub nsw i32 %21, %.022.lcssa
  store i32 %22, ptr %0, align 8, !tbaa !108
  %23 = getelementptr inbounds nuw i8, ptr %.02130, i64 8
  %24 = load ptr, ptr %23, align 8, !tbaa !106
  tail call void @_Z9save_freePKcS0_iPv(ptr noundef nonnull @.str.16, ptr noundef nonnull @.str.1, i32 noundef 381, ptr noundef %24)
  %25 = getelementptr inbounds nuw i8, ptr %.02130, i64 16
  %26 = load ptr, ptr %25, align 8, !tbaa !105
  tail call void @_Z9save_freePKcS0_iPv(ptr noundef nonnull @.str.23, ptr noundef nonnull @.str.1, i32 noundef 384, ptr noundef nonnull %.02130)
  %.not = icmp eq ptr %26, null
  br i1 %.not, label %._crit_edge, label %.preheader, !llvm.loop !118

._crit_edge:                                      ; preds = %.critedge, %1
  store ptr null, ptr %5, align 8, !tbaa !98
  %27 = load i32, ptr %0, align 8, !tbaa !108
  %.not23 = icmp eq i32 %27, 0
  br i1 %.not23, label %44, label %28

28:                                               ; preds = %._crit_edge
  call void @llvm.lifetime.start.p0(i64 32, ptr nonnull %2) #25
  call void @llvm.lifetime.start.p0(i64 1, ptr nonnull %3) #25
  call void @_ZNSt7__cxx1112basic_stringIcSt11char_traitsIcESaIcEEC2IS3_EEPKcRKS3_(ptr noundef nonnull align 8 dereferenceable(32) %2, ptr noundef nonnull @.str.25, ptr noundef nonnull align 1 dereferenceable(1) %3)
  call void @llvm.lifetime.start.p0(i64 40, ptr nonnull %4) #25
  invoke void @_ZNSt10filesystem7__cxx114pathC2IA125_cS1_EERKT_NS1_6formatE(ptr noundef nonnull align 8 dereferenceable(40) %4, ptr noundef nonnull align 1 dereferenceable(125) @.str.1, i8 noundef zeroext 2)
          to label %29 unwind label %31

29:                                               ; preds = %28
  invoke void @_Z18gmx_error_functionPKcRKNSt7__cxx1112basic_stringIcSt11char_traitsIcESaIcEEERKNSt10filesystem7__cxx114pathEi(ptr noundef nonnull @.str.24, ptr noundef nonnull align 8 dereferenceable(32) %2, ptr noundef nonnull align 8 dereferenceable(40) %4, i32 noundef 389) #29
          to label %30 unwind label %33

30:                                               ; preds = %29
  unreachable

31:                                               ; preds = %28
  %32 = landingpad { ptr, i32 }
          cleanup
  br label %35

33:                                               ; preds = %29
  %34 = landingpad { ptr, i32 }
          cleanup
  call void @_ZNSt10filesystem7__cxx114pathD2Ev(ptr noundef nonnull align 8 dereferenceable(40) %4) #25
  br label %35

35:                                               ; preds = %33, %31
  %.pn = phi { ptr, i32 } [ %34, %33 ], [ %32, %31 ]
  call void @llvm.lifetime.end.p0(i64 40, ptr nonnull %4) #25
  %36 = load ptr, ptr %2, align 8, !tbaa !19
  %37 = getelementptr inbounds nuw i8, ptr %2, i64 16
  %38 = icmp eq ptr %36, %37
  br i1 %38, label %_ZNKSt7__cxx1112basic_stringIcSt11char_traitsIcESaIcEE11_M_is_localEv.exit.thread.i.i, label %_ZNKSt7__cxx1112basic_stringIcSt11char_traitsIcESaIcEE11_M_is_localEv.exit.i.i

_ZNKSt7__cxx1112basic_stringIcSt11char_traitsIcESaIcEE11_M_is_localEv.exit.thread.i.i: ; preds = %35
  %39 = getelementptr inbounds nuw i8, ptr %2, i64 8
  %40 = load i64, ptr %39, align 8, !tbaa !21
  %41 = icmp ult i64 %40, 16
  call void @llvm.assume(i1 %41)
  br label %_ZNSt7__cxx1112basic_stringIcSt11char_traitsIcESaIcEED2Ev.exit

_ZNKSt7__cxx1112basic_stringIcSt11char_traitsIcESaIcEE11_M_is_localEv.exit.i.i: ; preds = %35
  %42 = load i64, ptr %37, align 8, !tbaa !23
  %43 = add i64 %42, 1
  call void @_ZdlPvm(ptr noundef %36, i64 noundef %43) #26
  br label %_ZNSt7__cxx1112basic_stringIcSt11char_traitsIcESaIcEED2Ev.exit

_ZNSt7__cxx1112basic_stringIcSt11char_traitsIcESaIcEED2Ev.exit: ; preds = %_ZNKSt7__cxx1112basic_stringIcSt11char_traitsIcESaIcEE11_M_is_localEv.exit.i.i, %_ZNKSt7__cxx1112basic_stringIcSt11char_traitsIcESaIcEE11_M_is_localEv.exit.thread.i.i
  call void @llvm.lifetime.end.p0(i64 1, ptr nonnull %3) #25
  call void @llvm.lifetime.end.p0(i64 32, ptr nonnull %2) #25
  resume { ptr, i32 } %.pn

44:                                               ; preds = %._crit_edge
  ret void
}